target datalayout = "e-m:e-p270:32:32-p271:32:32-p272:64:64-i64:64-i128:128-f80:128-n8:16:32:64-S128"
target triple = "x86_64-pc-linux-gnu"

; Function Attrs: nounwind uwtable
define i32 @ssl3_set_handshake_header(ptr noundef %0, ptr noundef %1, i32 noundef %2) #0 {
  %4 = alloca i32, align 4
  %5 = alloca ptr, align 8
  %6 = alloca ptr, align 8
  %7 = alloca i32, align 4
  store ptr %0, ptr %5, align 8, !tbaa !13
  store ptr %1, ptr %6, align 8, !tbaa !19
  store i32 %2, ptr %7, align 4, !tbaa !18
  %8 = load i32, ptr %7, align 4, !tbaa !18
  %9 = icmp eq i32 %8, 257
  br i1 %9, label %10, label %11

10:                                               ; preds = %3
  store i32 1, ptr %4, align 4
  br label %23

11:                                               ; preds = %3
  %12 = load ptr, ptr %6, align 8, !tbaa !19
  %13 = load i32, ptr %7, align 4, !tbaa !18
  %14 = sext i32 %13 to i64
  %15 = call i32 @WPACKET_put_bytes__(ptr noundef %12, i64 noundef %14, i64 noundef 1)
  %16 = icmp ne i32 %15, 0
  br i1 %16, label %17, label %21

17:                                               ; preds = %11
  %18 = load ptr, ptr %6, align 8, !tbaa !19
  %19 = call i32 @WPACKET_start_sub_packet_len__(ptr noundef %18, i64 noundef 3)
  %20 = icmp ne i32 %19, 0
  br i1 %20, label %22, label %21

21:                                               ; preds = %17, %11
  store i32 0, ptr %4, align 4
  br label %23

22:                                               ; preds = %17
  store i32 1, ptr %4, align 4
  br label %23

23:                                               ; preds = %22, %21, %10
  %24 = load i32, ptr %4, align 4
  ret i32 %24
}