; Function Attrs: nounwind uwtable
define range(i32 0, 2) i32 @ssl3_set_handshake_header(ptr readnone captures(none) %0, ptr noundef %1, i32 noundef %2) #4 {
  %4 = icmp eq i32 %2, 257
  br i1 %4, label %10, label %5

5:                                                ; preds = %3
  %6 = sext i32 %2 to i64
  %7 = tail call i32 @WPACKET_put_bytes__(ptr noundef %1, i64 noundef %6, i64 noundef 1) #18
  %.not = icmp eq i32 %7, 0
  br i1 %.not, label %10, label %8

8:                                                ; preds = %5
  %9 = tail call i32 @WPACKET_start_sub_packet_len__(ptr noundef %1, i64 noundef 3) #18
  %.not5 = icmp ne i32 %9, 0
  %spec.select = zext i1 %.not5 to i32
  br label %10

10:                                               ; preds = %8, %5, %3
  %.0 = phi i32 [ 1, %3 ], [ 0, %5 ], [ %spec.select, %8 ]
  ret i32 %.0
}